target datalayout = "e-m:e-p270:32:32-p271:32:32-p272:64:64-i64:64-i128:128-f80:128-n8:16:32:64-S128"
target triple = "x86_64-pc-linux-gnu"

%"class.std::basic_string_view" = type { i64, ptr }

@.str = private unnamed_addr constant [123 x i8] c"generated/home/dtcxzyw/WorkSpace/Projects/compilers/llvm-opt-benchmark/bench/abseil-cpp/abseil-cpp/absl/strings/numbers.cc\00", align 1
@.str.1 = private unnamed_addr constant [20 x i8] c"Check %s failed: %s\00", align 1
@.str.2 = private unnamed_addr constant [15 x i8] c"out != nullptr\00", align 1
@.str.3 = private unnamed_addr constant [36 x i8] c"Output pointer must not be nullptr.\00", align 1
@.str.4 = private unnamed_addr constant [5 x i8] c"true\00", align 1
@.str.5 = private unnamed_addr constant [2 x i8] c"t\00", align 1
@.str.6 = private unnamed_addr constant [4 x i8] c"yes\00", align 1
@.str.7 = private unnamed_addr constant [2 x i8] c"y\00", align 1
@.str.8 = private unnamed_addr constant [2 x i8] c"1\00", align 1
@.str.9 = private unnamed_addr constant [6 x i8] c"false\00", align 1
@.str.10 = private unnamed_addr constant [2 x i8] c"f\00", align 1
@.str.11 = private unnamed_addr constant [3 x i8] c"no\00", align 1
@.str.12 = private unnamed_addr constant [2 x i8] c"n\00", align 1
@.str.13 = private unnamed_addr constant [2 x i8] c"0\00", align 1

; Function Attrs: noinline noreturn nounwind uwtable
define linkonce_odr hidden void @__clang_call_terminate(ptr noundef %0) #11 comdat {
  %2 = call ptr @__cxa_begin_catch(ptr %0) #16
  call void @_ZSt9terminatev() #17
  unreachable
}

; Function Attrs: mustprogress nounwind uwtable
define linkonce_odr dso_local noundef i64 @_ZNSt11char_traitsIcE6lengthEPKc(ptr noundef %0) #4 comdat align 2 {
  %2 = alloca ptr, align 8
  store ptr %0, ptr %2, align 8, !tbaa !14
  %3 = load ptr, ptr %2, align 8, !tbaa !14
  %4 = call i64 @strlen(ptr noundef %3) #16
  ret i64 %4
}

; Function Attrs: mustprogress nounwind uwtable
define linkonce_odr dso_local void @_ZNSt17basic_string_viewIcSt11char_traitsIcEEC2EPKc(ptr noundef nonnull align 8 dereferenceable(16) %0, ptr noundef nonnull %1) unnamed_addr #4 comdat align 2 personality ptr @__gxx_personality_v0 {
  %3 = alloca ptr, align 8
  %4 = alloca ptr, align 8
  store ptr %0, ptr %3, align 8, !tbaa !21
  store ptr %1, ptr %4, align 8, !tbaa !14
  %5 = load ptr, ptr %3, align 8
  %6 = getelementptr inbounds nuw %"class.std::basic_string_view", ptr %5, i32 0, i32 0
  %7 = load ptr, ptr %4, align 8, !tbaa !14
  %8 = invoke noundef i64 @_ZNSt11char_traitsIcE6lengthEPKc(ptr noundef %7)
          to label %9 unwind label %12

9:                                                ; preds = %2
  store i64 %8, ptr %6, align 8, !tbaa !23
  %10 = getelementptr inbounds nuw %"class.std::basic_string_view", ptr %5, i32 0, i32 1
  %11 = load ptr, ptr %4, align 8, !tbaa !14
  store ptr %11, ptr %10, align 8, !tbaa !25
  ret void

12:                                               ; preds = %2
  %13 = landingpad { ptr, i32 }
          catch ptr null
  %14 = extractvalue { ptr, i32 } %13, 0
  call void @__clang_call_terminate(ptr %14) #17
  unreachable
}

; Function Attrs: mustprogress uwtable
define dso_local noundef zeroext i1 @_ZN4absl10SimpleAtobESt17basic_string_viewIcSt11char_traitsIcEEPb(i64 %0, ptr %1, ptr noundef %2) #0 {
  %4 = alloca i1, align 1
  %5 = alloca %"class.std::basic_string_view", align 8
  %6 = alloca ptr, align 8
  %7 = alloca ptr, align 8
  %8 = alloca %"class.std::basic_string_view", align 8
  %9 = alloca %"class.std::basic_string_view", align 8
  %10 = alloca %"class.std::basic_string_view", align 8
  %11 = alloca %"class.std::basic_string_view", align 8
  %12 = alloca %"class.std::basic_string_view", align 8
  %13 = alloca %"class.std::basic_string_view", align 8
  %14 = alloca %"class.std::basic_string_view", align 8
  %15 = alloca %"class.std::basic_string_view", align 8
  %16 = alloca %"class.std::basic_string_view", align 8
  %17 = alloca %"class.std::basic_string_view", align 8
  %18 = alloca %"class.std::basic_string_view", align 8
  %19 = alloca %"class.std::basic_string_view", align 8
  %20 = alloca %"class.std::basic_string_view", align 8
  %21 = alloca %"class.std::basic_string_view", align 8
  %22 = alloca %"class.std::basic_string_view", align 8
  %23 = alloca %"class.std::basic_string_view", align 8
  %24 = alloca %"class.std::basic_string_view", align 8
  %25 = alloca %"class.std::basic_string_view", align 8
  %26 = alloca %"class.std::basic_string_view", align 8
  %27 = alloca %"class.std::basic_string_view", align 8
  %28 = getelementptr inbounds nuw { i64, ptr }, ptr %5, i32 0, i32 0
  store i64 %0, ptr %28, align 8
  %29 = getelementptr inbounds nuw { i64, ptr }, ptr %5, i32 0, i32 1
  store ptr %1, ptr %29, align 8
  store ptr %2, ptr %6, align 8, !tbaa !30
  br label %30

30:                                               ; preds = %3
  %31 = load ptr, ptr %6, align 8, !tbaa !30
  %32 = icmp ne ptr %31, null
  %33 = xor i1 %32, true
  %34 = zext i1 %33 to i64
  %35 = call i64 @llvm.expect.i64(i64 %34, i64 0)
  %36 = icmp ne i64 %35, 0
  br i1 %36, label %37, label %43

37:                                               ; preds = %30
  br label %38

38:                                               ; preds = %37
  call void @llvm.lifetime.start.p0(i64 8, ptr %7) #16
  store ptr getelementptr (i8, ptr @.str, i64 112), ptr %7, align 8, !tbaa !14
  call void (i32, ptr, i32, ptr, ...) @_ZN4absl16raw_log_internal6RawLogENS_11LogSeverityEPKciS3_z(i32 noundef 3, ptr noundef getelementptr (i8, ptr @.str, i64 112), i32 noundef 113, ptr noundef @.str.1, ptr noundef @.str.2, ptr noundef @.str.3)
  br label %39

39:                                               ; preds = %38
  unreachable

40:                                               ; No predecessors!
  br label %41

41:                                               ; preds = %40
  call void @llvm.lifetime.end.p0(i64 8, ptr %7) #16
  br label %42

42:                                               ; preds = %41
  br label %43

43:                                               ; preds = %42, %30
  br label %44

44:                                               ; preds = %43
  call void @llvm.memcpy.p0.p0.i64(ptr align 8 %8, ptr align 8 %5, i64 16, i1 false), !tbaa.struct !11
  call void @_ZNSt17basic_string_viewIcSt11char_traitsIcEEC2EPKc(ptr noundef nonnull align 8 dereferenceable(16) %9, ptr noundef @.str.4) #16
  %45 = getelementptr inbounds nuw { i64, ptr }, ptr %8, i32 0, i32 0
  %46 = load i64, ptr %45, align 8
  %47 = getelementptr inbounds nuw { i64, ptr }, ptr %8, i32 0, i32 1
  %48 = load ptr, ptr %47, align 8
  %49 = getelementptr inbounds nuw { i64, ptr }, ptr %9, i32 0, i32 0
  %50 = load i64, ptr %49, align 8
  %51 = getelementptr inbounds nuw { i64, ptr }, ptr %9, i32 0, i32 1
  %52 = load ptr, ptr %51, align 8
  %53 = call noundef zeroext i1 @_ZN4absl16EqualsIgnoreCaseESt17basic_string_viewIcSt11char_traitsIcEES3_(i64 %46, ptr %48, i64 %50, ptr %52) #16
  br i1 %53, label %94, label %54

54:                                               ; preds = %44
  call void @llvm.memcpy.p0.p0.i64(ptr align 8 %10, ptr align 8 %5, i64 16, i1 false), !tbaa.struct !11
  call void @_ZNSt17basic_string_viewIcSt11char_traitsIcEEC2EPKc(ptr noundef nonnull align 8 dereferenceable(16) %11, ptr noundef @.str.5) #16
  %55 = getelementptr inbounds nuw { i64, ptr }, ptr %10, i32 0, i32 0
  %56 = load i64, ptr %55, align 8
  %57 = getelementptr inbounds nuw { i64, ptr }, ptr %10, i32 0, i32 1
  %58 = load ptr, ptr %57, align 8
  %59 = getelementptr inbounds nuw { i64, ptr }, ptr %11, i32 0, i32 0
  %60 = load i64, ptr %59, align 8
  %61 = getelementptr inbounds nuw { i64, ptr }, ptr %11, i32 0, i32 1
  %62 = load ptr, ptr %61, align 8
  %63 = call noundef zeroext i1 @_ZN4absl16EqualsIgnoreCaseESt17basic_string_viewIcSt11char_traitsIcEES3_(i64 %56, ptr %58, i64 %60, ptr %62) #16
  br i1 %63, label %94, label %64

64:                                               ; preds = %54
  call void @llvm.memcpy.p0.p0.i64(ptr align 8 %12, ptr align 8 %5, i64 16, i1 false), !tbaa.struct !11
  call void @_ZNSt17basic_string_viewIcSt11char_traitsIcEEC2EPKc(ptr noundef nonnull align 8 dereferenceable(16) %13, ptr noundef @.str.6) #16
  %65 = getelementptr inbounds nuw { i64, ptr }, ptr %12, i32 0, i32 0
  %66 = load i64, ptr %65, align 8
  %67 = getelementptr inbounds nuw { i64, ptr }, ptr %12, i32 0, i32 1
  %68 = load ptr, ptr %67, align 8
  %69 = getelementptr inbounds nuw { i64, ptr }, ptr %13, i32 0, i32 0
  %70 = load i64, ptr %69, align 8
  %71 = getelementptr inbounds nuw { i64, ptr }, ptr %13, i32 0, i32 1
  %72 = load ptr, ptr %71, align 8
  %73 = call noundef zeroext i1 @_ZN4absl16EqualsIgnoreCaseESt17basic_string_viewIcSt11char_traitsIcEES3_(i64 %66, ptr %68, i64 %70, ptr %72) #16
  br i1 %73, label %94, label %74

74:                                               ; preds = %64
  call void @llvm.memcpy.p0.p0.i64(ptr align 8 %14, ptr align 8 %5, i64 16, i1 false), !tbaa.struct !11
  call void @_ZNSt17basic_string_viewIcSt11char_traitsIcEEC2EPKc(ptr noundef nonnull align 8 dereferenceable(16) %15, ptr noundef @.str.7) #16
  %75 = getelementptr inbounds nuw { i64, ptr }, ptr %14, i32 0, i32 0
  %76 = load i64, ptr %75, align 8
  %77 = getelementptr inbounds nuw { i64, ptr }, ptr %14, i32 0, i32 1
  %78 = load ptr, ptr %77, align 8
  %79 = getelementptr inbounds nuw { i64, ptr }, ptr %15, i32 0, i32 0
  %80 = load i64, ptr %79, align 8
  %81 = getelementptr inbounds nuw { i64, ptr }, ptr %15, i32 0, i32 1
  %82 = load ptr, ptr %81, align 8
  %83 = call noundef zeroext i1 @_ZN4absl16EqualsIgnoreCaseESt17basic_string_viewIcSt11char_traitsIcEES3_(i64 %76, ptr %78, i64 %80, ptr %82) #16
  br i1 %83, label %94, label %84

84:                                               ; preds = %74
  call void @llvm.memcpy.p0.p0.i64(ptr align 8 %16, ptr align 8 %5, i64 16, i1 false), !tbaa.struct !11
  call void @_ZNSt17basic_string_viewIcSt11char_traitsIcEEC2EPKc(ptr noundef nonnull align 8 dereferenceable(16) %17, ptr noundef @.str.8) #16
  %85 = getelementptr inbounds nuw { i64, ptr }, ptr %16, i32 0, i32 0
  %86 = load i64, ptr %85, align 8
  %87 = getelementptr inbounds nuw { i64, ptr }, ptr %16, i32 0, i32 1
  %88 = load ptr, ptr %87, align 8
  %89 = getelementptr inbounds nuw { i64, ptr }, ptr %17, i32 0, i32 0
  %90 = load i64, ptr %89, align 8
  %91 = getelementptr inbounds nuw { i64, ptr }, ptr %17, i32 0, i32 1
  %92 = load ptr, ptr %91, align 8
  %93 = call noundef zeroext i1 @_ZN4absl16EqualsIgnoreCaseESt17basic_string_viewIcSt11char_traitsIcEES3_(i64 %86, ptr %88, i64 %90, ptr %92) #16
  br i1 %93, label %94, label %96

94:                                               ; preds = %84, %74, %64, %54, %44
  %95 = load ptr, ptr %6, align 8, !tbaa !30
  store i8 1, ptr %95, align 1, !tbaa !32
  store i1 true, ptr %4, align 1
  br label %149

96:                                               ; preds = %84
  call void @llvm.memcpy.p0.p0.i64(ptr align 8 %18, ptr align 8 %5, i64 16, i1 false), !tbaa.struct !11
  call void @_ZNSt17basic_string_viewIcSt11char_traitsIcEEC2EPKc(ptr noundef nonnull align 8 dereferenceable(16) %19, ptr noundef @.str.9) #16
  %97 = getelementptr inbounds nuw { i64, ptr }, ptr %18, i32 0, i32 0
  %98 = load i64, ptr %97, align 8
  %99 = getelementptr inbounds nuw { i64, ptr }, ptr %18, i32 0, i32 1
  %100 = load ptr, ptr %99, align 8
  %101 = getelementptr inbounds nuw { i64, ptr }, ptr %19, i32 0, i32 0
  %102 = load i64, ptr %101, align 8
  %103 = getelementptr inbounds nuw { i64, ptr }, ptr %19, i32 0, i32 1
  %104 = load ptr, ptr %103, align 8
  %105 = call noundef zeroext i1 @_ZN4absl16EqualsIgnoreCaseESt17basic_string_viewIcSt11char_traitsIcEES3_(i64 %98, ptr %100, i64 %102, ptr %104) #16
  br i1 %105, label %146, label %106

106:                                              ; preds = %96
  call void @llvm.memcpy.p0.p0.i64(ptr align 8 %20, ptr align 8 %5, i64 16, i1 false), !tbaa.struct !11
  call void @_ZNSt17basic_string_viewIcSt11char_traitsIcEEC2EPKc(ptr noundef nonnull align 8 dereferenceable(16) %21, ptr noundef @.str.10) #16
  %107 = getelementptr inbounds nuw { i64, ptr }, ptr %20, i32 0, i32 0
  %108 = load i64, ptr %107, align 8
  %109 = getelementptr inbounds nuw { i64, ptr }, ptr %20, i32 0, i32 1
  %110 = load ptr, ptr %109, align 8
  %111 = getelementptr inbounds nuw { i64, ptr }, ptr %21, i32 0, i32 0
  %112 = load i64, ptr %111, align 8
  %113 = getelementptr inbounds nuw { i64, ptr }, ptr %21, i32 0, i32 1
  %114 = load ptr, ptr %113, align 8
  %115 = call noundef zeroext i1 @_ZN4absl16EqualsIgnoreCaseESt17basic_string_viewIcSt11char_traitsIcEES3_(i64 %108, ptr %110, i64 %112, ptr %114) #16
  br i1 %115, label %146, label %116

116:                                              ; preds = %106
  call void @llvm.memcpy.p0.p0.i64(ptr align 8 %22, ptr align 8 %5, i64 16, i1 false), !tbaa.struct !11
  call void @_ZNSt17basic_string_viewIcSt11char_traitsIcEEC2EPKc(ptr noundef nonnull align 8 dereferenceable(16) %23, ptr noundef @.str.11) #16
  %117 = getelementptr inbounds nuw { i64, ptr }, ptr %22, i32 0, i32 0
  %118 = load i64, ptr %117, align 8
  %119 = getelementptr inbounds nuw { i64, ptr }, ptr %22, i32 0, i32 1
  %120 = load ptr, ptr %119, align 8
  %121 = getelementptr inbounds nuw { i64, ptr }, ptr %23, i32 0, i32 0
  %122 = load i64, ptr %121, align 8
  %123 = getelementptr inbounds nuw { i64, ptr }, ptr %23, i32 0, i32 1
  %124 = load ptr, ptr %123, align 8
  %125 = call noundef zeroext i1 @_ZN4absl16EqualsIgnoreCaseESt17basic_string_viewIcSt11char_traitsIcEES3_(i64 %118, ptr %120, i64 %122, ptr %124) #16
  br i1 %125, label %146, label %126

126:                                              ; preds = %116
  call void @llvm.memcpy.p0.p0.i64(ptr align 8 %24, ptr align 8 %5, i64 16, i1 false), !tbaa.struct !11
  call void @_ZNSt17basic_string_viewIcSt11char_traitsIcEEC2EPKc(ptr noundef nonnull align 8 dereferenceable(16) %25, ptr noundef @.str.12) #16
  %127 = getelementptr inbounds nuw { i64, ptr }, ptr %24, i32 0, i32 0
  %128 = load i64, ptr %127, align 8
  %129 = getelementptr inbounds nuw { i64, ptr }, ptr %24, i32 0, i32 1
  %130 = load ptr, ptr %129, align 8
  %131 = getelementptr inbounds nuw { i64, ptr }, ptr %25, i32 0, i32 0
  %132 = load i64, ptr %131, align 8
  %133 = getelementptr inbounds nuw { i64, ptr }, ptr %25, i32 0, i32 1
  %134 = load ptr, ptr %133, align 8
  %135 = call noundef zeroext i1 @_ZN4absl16EqualsIgnoreCaseESt17basic_string_viewIcSt11char_traitsIcEES3_(i64 %128, ptr %130, i64 %132, ptr %134) #16
  br i1 %135, label %146, label %136

136:                                              ; preds = %126
  call void @llvm.memcpy.p0.p0.i64(ptr align 8 %26, ptr align 8 %5, i64 16, i1 false), !tbaa.struct !11
  call void @_ZNSt17basic_string_viewIcSt11char_traitsIcEEC2EPKc(ptr noundef nonnull align 8 dereferenceable(16) %27, ptr noundef @.str.13) #16
  %137 = getelementptr inbounds nuw { i64, ptr }, ptr %26, i32 0, i32 0
  %138 = load i64, ptr %137, align 8
  %139 = getelementptr inbounds nuw { i64, ptr }, ptr %26, i32 0, i32 1
  %140 = load ptr, ptr %139, align 8
  %141 = getelementptr inbounds nuw { i64, ptr }, ptr %27, i32 0, i32 0
  %142 = load i64, ptr %141, align 8
  %143 = getelementptr inbounds nuw { i64, ptr }, ptr %27, i32 0, i32 1
  %144 = load ptr, ptr %143, align 8
  %145 = call noundef zeroext i1 @_ZN4absl16EqualsIgnoreCaseESt17basic_string_viewIcSt11char_traitsIcEES3_(i64 %138, ptr %140, i64 %142, ptr %144) #16
  br i1 %145, label %146, label %148

146:                                              ; preds = %136, %126, %116, %106, %96
  %147 = load ptr, ptr %6, align 8, !tbaa !30
  store i8 0, ptr %147, align 1, !tbaa !32
  store i1 true, ptr %4, align 1
  br label %149

148:                                              ; preds = %136
  store i1 false, ptr %4, align 1
  br label %149

149:                                              ; preds = %148, %146, %94
  %150 = load i1, ptr %4, align 1
  ret i1 %150
}