; Function Attrs: mustprogress uwtable
define dso_local noundef zeroext i1 @_ZN4absl10SimpleAtobESt17basic_string_viewIcSt11char_traitsIcEEPb(i64 %0, ptr %1, ptr noundef writeonly captures(address_is_null) %2) local_unnamed_addr #0 personality ptr @__gxx_personality_v0 {
  %.not = icmp eq ptr %2, null
  br i1 %.not, label %4, label %5, !prof !27

4:                                                ; preds = %3
  tail call void (i32, ptr, i32, ptr, ...) @_ZN4absl16raw_log_internal6RawLogENS_11LogSeverityEPKciS3_z(i32 noundef 3, ptr noundef nonnull getelementptr inbounds nuw (i8, ptr @.str, i64 112), i32 noundef 113, ptr noundef nonnull @.str.1, ptr noundef nonnull @.str.2, ptr noundef nonnull @.str.3)
  unreachable

5:                                                ; preds = %3
  %6 = tail call noundef zeroext i1 @_ZN4absl16EqualsIgnoreCaseESt17basic_string_viewIcSt11char_traitsIcEES3_(i64 %0, ptr %1, i64 4, ptr nonnull @.str.4) #16
  br i1 %6, label %.sink.split, label %7

7:                                                ; preds = %5
  %8 = tail call noundef zeroext i1 @_ZN4absl16EqualsIgnoreCaseESt17basic_string_viewIcSt11char_traitsIcEES3_(i64 %0, ptr %1, i64 1, ptr nonnull @.str.5) #16
  br i1 %8, label %.sink.split, label %9

9:                                                ; preds = %7
  %10 = tail call noundef zeroext i1 @_ZN4absl16EqualsIgnoreCaseESt17basic_string_viewIcSt11char_traitsIcEES3_(i64 %0, ptr %1, i64 3, ptr nonnull @.str.6) #16
  br i1 %10, label %.sink.split, label %11

11:                                               ; preds = %9
  %12 = tail call noundef zeroext i1 @_ZN4absl16EqualsIgnoreCaseESt17basic_string_viewIcSt11char_traitsIcEES3_(i64 %0, ptr %1, i64 1, ptr nonnull @.str.7) #16
  br i1 %12, label %.sink.split, label %13

13:                                               ; preds = %11
  %14 = tail call noundef zeroext i1 @_ZN4absl16EqualsIgnoreCaseESt17basic_string_viewIcSt11char_traitsIcEES3_(i64 %0, ptr %1, i64 1, ptr nonnull @.str.8) #16
  br i1 %14, label %.sink.split, label %15

15:                                               ; preds = %13
  %16 = tail call noundef zeroext i1 @_ZN4absl16EqualsIgnoreCaseESt17basic_string_viewIcSt11char_traitsIcEES3_(i64 %0, ptr %1, i64 5, ptr nonnull @.str.9) #16
  br i1 %16, label %.sink.split, label %17

17:                                               ; preds = %15
  %18 = tail call noundef zeroext i1 @_ZN4absl16EqualsIgnoreCaseESt17basic_string_viewIcSt11char_traitsIcEES3_(i64 %0, ptr %1, i64 1, ptr nonnull @.str.10) #16
  br i1 %18, label %.sink.split, label %19

19:                                               ; preds = %17
  %20 = tail call noundef zeroext i1 @_ZN4absl16EqualsIgnoreCaseESt17basic_string_viewIcSt11char_traitsIcEES3_(i64 %0, ptr %1, i64 2, ptr nonnull @.str.11) #16
  br i1 %20, label %.sink.split, label %21

21:                                               ; preds = %19
  %22 = tail call noundef zeroext i1 @_ZN4absl16EqualsIgnoreCaseESt17basic_string_viewIcSt11char_traitsIcEES3_(i64 %0, ptr %1, i64 1, ptr nonnull @.str.12) #16
  br i1 %22, label %.sink.split, label %23

23:                                               ; preds = %21
  %24 = tail call noundef zeroext i1 @_ZN4absl16EqualsIgnoreCaseESt17basic_string_viewIcSt11char_traitsIcEES3_(i64 %0, ptr %1, i64 1, ptr nonnull @.str.13) #16
  br i1 %24, label %.sink.split, label %25

.sink.split:                                      ; preds = %15, %17, %19, %21, %23, %5, %7, %9, %11, %13
  %.sink = phi i8 [ 1, %13 ], [ 1, %11 ], [ 1, %9 ], [ 1, %7 ], [ 1, %5 ], [ 0, %23 ], [ 0, %21 ], [ 0, %19 ], [ 0, %17 ], [ 0, %15 ]
  store i8 %.sink, ptr %2, align 1, !tbaa !28
  br label %25

25:                                               ; preds = %.sink.split, %23
  %.0 = phi i1 [ false, %23 ], [ true, %.sink.split ]
  ret i1 %.0
}